target datalayout = "e-m:e-p270:32:32-p271:32:32-p272:64:64-i64:64-i128:128-f80:128-n8:16:32:64-S128"
target triple = "x86_64-pc-linux-gnu"

%struct.cmac_ctx_st = type { %struct.evp_cipher_ctx_st, [16 x i8], [16 x i8], [16 x i8], i32 }
%struct.evp_cipher_ctx_st = type { ptr, ptr, ptr, i32, i32, i32, [16 x i8], [16 x i8], [32 x i8], i32, i32, i32, i32, [32 x i8] }

; Function Attrs: nounwind uwtable
define internal void @CMAC_CTX_init(ptr noundef %0) #0 {
  %2 = alloca ptr, align 8
  store ptr %0, ptr %2, align 8, !tbaa !17
  %3 = load ptr, ptr %2, align 8, !tbaa !17
  %4 = getelementptr inbounds nuw %struct.cmac_ctx_st, ptr %3, i32 0, i32 0
  call void @EVP_CIPHER_CTX_init(ptr noundef %4)
  ret void
}

; Function Attrs: nounwind uwtable
define hidden ptr @CMAC_CTX_new() #0 {
  %1 = alloca ptr, align 8
  call void @llvm.lifetime.start.p0(i64 8, ptr %1) #7
  %2 = call noalias ptr @malloc(i64 noundef 208) #8
  store ptr %2, ptr %1, align 8, !tbaa !17
  %3 = load ptr, ptr %1, align 8, !tbaa !17
  %4 = icmp ne ptr %3, null
  br i1 %4, label %5, label %7

5:                                                ; preds = %0
  %6 = load ptr, ptr %1, align 8, !tbaa !17
  call void @CMAC_CTX_init(ptr noundef %6)
  br label %7

7:                                                ; preds = %5, %0
  %8 = load ptr, ptr %1, align 8, !tbaa !17
  call void @llvm.lifetime.end.p0(i64 8, ptr %1) #7
  ret ptr %8
}