; Function Attrs: nounwind uwtable
define hidden noundef ptr @CMAC_CTX_new() local_unnamed_addr #0 {
  %1 = tail call noalias dereferenceable_or_null(208) ptr @malloc(i64 noundef 208) #9
  %.not = icmp eq ptr %1, null
  br i1 %.not, label %3, label %2

2:                                                ; preds = %0
  tail call void @EVP_CIPHER_CTX_init(ptr noundef nonnull %1) #8
  br label %3

3:                                                ; preds = %2, %0
  ret ptr %1
}